; Function Attrs: mustprogress nofree norecurse nounwind null_pointer_is_valid sspstrong willreturn memory(readwrite, inaccessiblemem: none) uwtable
define void @_ZN7TabDataC2E7QStringi(ptr noundef writeonly align 8 captures(none) dereferenceable_or_null(28) initializes((0, 28)) %0, ptr noundef readonly captures(none) %1, i32 noundef %2) unnamed_addr #1 align 2 personality ptr @__gxx_personality_v0 {
  %4 = load ptr, ptr %1, align 8
  store ptr %4, ptr %0, align 8
  %5 = getelementptr inbounds nuw i8, ptr %0, i64 8
  %6 = getelementptr inbounds nuw i8, ptr %1, i64 8
  %7 = load ptr, ptr %6, align 8
  store ptr %7, ptr %5, align 8
  %8 = getelementptr inbounds nuw i8, ptr %0, i64 16
  %9 = getelementptr inbounds nuw i8, ptr %1, i64 16
  %10 = load i64, ptr %9, align 8
  store i64 %10, ptr %8, align 8
  %.not.i.i.i = icmp eq ptr %4, null
  br i1 %.not.i.i.i, label %_ZN7QStringC2ERKS_.exit, label %11

11:                                               ; preds = %3
  %12 = atomicrmw add ptr %4, i32 1 seq_cst, align 4
  br label %_ZN7QStringC2ERKS_.exit

_ZN7QStringC2ERKS_.exit:                          ; preds = %3, %11
  %13 = getelementptr inbounds nuw i8, ptr %0, i64 24
  store i32 %2, ptr %13, align 8
  ret void
}